target datalayout = "e-m:e-p270:32:32-p271:32:32-p272:64:64-i64:64-i128:128-f80:128-n8:16:32:64-S128"
target triple = "x86_64-pc-linux-gnu"

; Function Attrs: mustprogress nounwind uwtable
define noundef i32 @_ZN11duckdb_zstd15HUF_cardinalityEPKjj(ptr noundef %0, i32 noundef %1) #0 {
  %3 = alloca ptr, align 8
  %4 = alloca i32, align 4
  %5 = alloca i32, align 4
  %6 = alloca i32, align 4
  store ptr %0, ptr %3, align 8, !tbaa !20
  store i32 %1, ptr %4, align 4, !tbaa !11
  call void @llvm.lifetime.start.p0(i64 4, ptr %5) #12
  store i32 0, ptr %5, align 4, !tbaa !11
  call void @llvm.lifetime.start.p0(i64 4, ptr %6) #12
  store i32 0, ptr %6, align 4, !tbaa !11
  br label %7

7:                                                ; preds = %23, %2
  %8 = load i32, ptr %6, align 4, !tbaa !11
  %9 = load i32, ptr %4, align 4, !tbaa !11
  %10 = add i32 %9, 1
  %11 = icmp ult i32 %8, %10
  br i1 %11, label %12, label %26

12:                                               ; preds = %7
  %13 = load ptr, ptr %3, align 8, !tbaa !20
  %14 = load i32, ptr %6, align 4, !tbaa !11
  %15 = zext i32 %14 to i64
  %16 = getelementptr inbounds nuw i32, ptr %13, i64 %15
  %17 = load i32, ptr %16, align 4, !tbaa !11
  %18 = icmp ne i32 %17, 0
  br i1 %18, label %19, label %22

19:                                               ; preds = %12
  %20 = load i32, ptr %5, align 4, !tbaa !11
  %21 = add i32 %20, 1
  store i32 %21, ptr %5, align 4, !tbaa !11
  br label %22

22:                                               ; preds = %19, %12
  br label %23

23:                                               ; preds = %22
  %24 = load i32, ptr %6, align 4, !tbaa !11
  %25 = add i32 %24, 1
  store i32 %25, ptr %6, align 4, !tbaa !11
  br label %7, !llvm.loop !65

26:                                               ; preds = %7
  %27 = load i32, ptr %5, align 4, !tbaa !11
  call void @llvm.lifetime.end.p0(i64 4, ptr %6) #12
  call void @llvm.lifetime.end.p0(i64 4, ptr %5) #12
  ret i32 %27
}